	.file	"fibbonacci.c"
	.text
.Ltext0:
	.section	.rodata
	.align 8
.LC0:
	.string	"Let's calculate the fibbonaci numbers "
.LC1:
	.string	"Please insert n:"
.LC2:
	.string	"%d"
.LC3:
	.string	"Cannot be calculated"
	.text
	.globl	main
	.type	main, @function
main:
.LFB0:
	.file 1 "/home/julia/CLionProjects/EPROG_SS21/series03/fibbonacci.c"
	.loc 1 15 34
	.cfi_startproc
	endbr64
	pushq	%rbp
	.cfi_def_cfa_offset 16
	.cfi_offset 6, -16
	movq	%rsp, %rbp
	.cfi_def_cfa_register 6
	subq	$32, %rsp
	movl	%edi, -20(%rbp)
	movq	%rsi, -32(%rbp)
	.loc 1 15 34
	movq	%fs:40, %rax
	movq	%rax, -8(%rbp)
	xorl	%eax, %eax
	.loc 1 16 9
	movl	$0, -12(%rbp)
	.loc 1 17 5
	leaq	.LC0(%rip), %rdi
	call	puts@PLT
	.loc 1 18 5
	leaq	.LC1(%rip), %rdi
	movl	$0, %eax
	call	printf@PLT
	.loc 1 19 5
	leaq	-12(%rbp), %rax
	movq	%rax, %rsi
	leaq	.LC2(%rip), %rdi
	movl	$0, %eax
	call	__isoc99_scanf@PLT
	.loc 1 20 11
	movl	-12(%rbp), %eax
	.loc 1 20 8
	testl	%eax, %eax
	jg	.L2
	.loc 1 21 9
	leaq	.LC3(%rip), %rdi
	movl	$0, %eax
	call	printf@PLT
	.loc 1 22 16
	movl	$-1, %eax
	jmp	.L4
.L2:
	.loc 1 30 9
	movl	-12(%rbp), %eax
	movl	%eax, %edi
	call	fibbonacciNonRecursive
	.loc 1 33 12
	movl	$0, %eax
.L4:
	.loc 1 34 1 discriminator 1
	movq	-8(%rbp), %rdx
	xorq	%fs:40, %rdx
	je	.L5
	.loc 1 34 1 is_stmt 0
	call	__stack_chk_fail@PLT
.L5:
	leave
	.cfi_def_cfa 7, 8
	ret
	.cfi_endproc
.LFE0:
	.size	main, .-main
	.globl	fibbonacci
	.type	fibbonacci, @function
fibbonacci:
.LFB1:
	.loc 1 37 23 is_stmt 1
	.cfi_startproc
	endbr64
	pushq	%rbp
	.cfi_def_cfa_offset 16
	.cfi_offset 6, -16
	movq	%rsp, %rbp
	.cfi_def_cfa_register 6
	pushq	%rbx
	subq	$24, %rsp
	.cfi_offset 3, -24
	movl	%edi, -20(%rbp)
	.loc 1 38 7
	cmpl	$0, -20(%rbp)
	jne	.L7
	.loc 1 39 16
	movl	$0, %eax
	jmp	.L8
.L7:
	.loc 1 40 14
	cmpl	$1, -20(%rbp)
	jne	.L9
	.loc 1 41 16
	movl	$1, %eax
	jmp	.L8
.L9:
	.loc 1 43 17
	movl	-20(%rbp), %eax
	subl	$1, %eax
	movl	%eax, %edi
	call	fibbonacci
	movl	%eax, %ebx
	.loc 1 43 35
	movl	-20(%rbp), %eax
	subl	$2, %eax
	movl	%eax, %edi
	call	fibbonacci
	.loc 1 43 33
	addl	%ebx, %eax
.L8:
	.loc 1 45 1
	addq	$24, %rsp
	popq	%rbx
	popq	%rbp
	.cfi_def_cfa 7, 8
	ret
	.cfi_endproc
.LFE1:
	.size	fibbonacci, .-fibbonacci
	.globl	fibbonacciNonRecursive
	.type	fibbonacciNonRecursive, @function
fibbonacciNonRecursive:
.LFB2:
	.loc 1 48 35
	.cfi_startproc
	endbr64
	pushq	%rbp
	.cfi_def_cfa_offset 16
	.cfi_offset 6, -16
	movq	%rsp, %rbp
	.cfi_def_cfa_register 6
	subq	$48, %rsp
	movl	%edi, -36(%rbp)
	.loc 1 49 9
	movl	$0, -28(%rbp)
	.loc 1 50 12
	movsd	.LC4(%rip), %xmm0
	movsd	%xmm0, -24(%rbp)
	.loc 1 50 32
	movsd	.LC5(%rip), %xmm0
	movsd	%xmm0, -16(%rbp)
	.loc 1 50 43
	pxor	%xmm0, %xmm0
	movsd	%xmm0, -8(%rbp)
	.loc 1 52 7
	cmpl	$0, -36(%rbp)
	je	.L11
	.loc 1 52 15 discriminator 1
	cmpl	$1, -36(%rbp)
	jne	.L12
.L11:
	.loc 1 53 14
	movl	$1, -28(%rbp)
	jmp	.L13
.L12:
	.loc 1 55 19
	movsd	-24(%rbp), %xmm1
	movsd	.LC5(%rip), %xmm0
	addsd	%xmm1, %xmm0
	.loc 1 55 15
	movsd	.LC7(%rip), %xmm1
	divsd	%xmm1, %xmm0
	movsd	%xmm0, -16(%rbp)
	.loc 1 56 19
	movsd	.LC5(%rip), %xmm0
	subsd	-24(%rbp), %xmm0
	.loc 1 56 15
	movsd	.LC7(%rip), %xmm1
	divsd	%xmm1, %xmm0
	movsd	%xmm0, -8(%rbp)
	.loc 1 57 17
	cvtsi2sdl	-36(%rbp), %xmm0
	movq	-16(%rbp), %rax
	movapd	%xmm0, %xmm1
	movq	%rax, %xmm0
	call	pow@PLT
	movq	%xmm0, %rax
	movq	%rax, -16(%rbp)
	.loc 1 58 17
	cvtsi2sdl	-36(%rbp), %xmm0
	movq	-8(%rbp), %rax
	movapd	%xmm0, %xmm1
	movq	%rax, %xmm0
	call	pow@PLT
	movq	%xmm0, %rax
	movq	%rax, -8(%rbp)
	.loc 1 59 29
	movsd	-16(%rbp), %xmm0
	subsd	-8(%rbp), %xmm0
	.loc 1 59 36
	divsd	-24(%rbp), %xmm0
	.loc 1 59 14
	cvttsd2sil	%xmm0, %eax
	movl	%eax, -28(%rbp)
.L13:
	.loc 1 61 12
	movl	-28(%rbp), %eax
	.loc 1 62 1
	leave
	.cfi_def_cfa 7, 8
	ret
	.cfi_endproc
.LFE2:
	.size	fibbonacciNonRecursive, .-fibbonacciNonRecursive
	.section	.rodata
	.align 8
.LC4:
	.long	2610427048
	.long	1073865591
	.align 8
.LC5:
	.long	0
	.long	1072693248
	.align 8
.LC7:
	.long	0
	.long	1073741824
	.text
.Letext0:
	.file 2 "/usr/include/x86_64-linux-gnu/bits/types.h"
	.file 3 "/usr/lib/gcc/x86_64-linux-gnu/9/include/stddef.h"
	.file 4 "/usr/include/x86_64-linux-gnu/bits/types/struct_FILE.h"
	.file 5 "/usr/include/x86_64-linux-gnu/bits/types/FILE.h"
	.file 6 "/usr/include/math.h"
	.file 7 "/usr/include/stdio.h"
	.file 8 "/usr/include/x86_64-linux-gnu/bits/sys_errlist.h"
	.section	.note.GNU-stack,"",@progbits
	.section	.note.gnu.property,"a"
	.align 8
	.long	 1f - 0f
	.long	 4f - 1f
	.long	 5
0:
	.string	 "GNU"
1:
	.align 8
	.long	 0xc0000002
	.long	 3f - 2f
2:
	.long	 0x3
3:
	.align 8
4:
